target datalayout = "e-m:e-p270:32:32-p271:32:32-p272:64:64-i64:64-i128:128-f80:128-n8:16:32:64-S128"
target triple = "x86_64-pc-linux-gnu"

; Function Attrs: nounwind uwtable
define dso_local i32 @find_commit_subject(ptr noundef %0, ptr noundef %1) #0 {
  %3 = alloca ptr, align 8
  %4 = alloca ptr, align 8
  %5 = alloca ptr, align 8
  %6 = alloca ptr, align 8
  store ptr %0, ptr %3, align 8, !tbaa !15
  store ptr %1, ptr %4, align 8, !tbaa !119
  call void @llvm.lifetime.start.p0(i64 8, ptr %5) #11
  call void @llvm.lifetime.start.p0(i64 8, ptr %6) #11
  %7 = load ptr, ptr %3, align 8, !tbaa !15
  store ptr %7, ptr %6, align 8, !tbaa !15
  br label %8

8:                                                ; preds = %28, %2
  %9 = load ptr, ptr %6, align 8, !tbaa !15
  %10 = load i8, ptr %9, align 1, !tbaa !19
  %11 = sext i8 %10 to i32
  %12 = icmp ne i32 %11, 0
  br i1 %12, label %13, label %26

13:                                               ; preds = %8
  %14 = load ptr, ptr %6, align 8, !tbaa !15
  %15 = load i8, ptr %14, align 1, !tbaa !19
  %16 = sext i8 %15 to i32
  %17 = icmp ne i32 %16, 10
  br i1 %17, label %24, label %18

18:                                               ; preds = %13
  %19 = load ptr, ptr %6, align 8, !tbaa !15
  %20 = getelementptr inbounds i8, ptr %19, i64 1
  %21 = load i8, ptr %20, align 1, !tbaa !19
  %22 = sext i8 %21 to i32
  %23 = icmp ne i32 %22, 10
  br label %24

24:                                               ; preds = %18, %13
  %25 = phi i1 [ true, %13 ], [ %23, %18 ]
  br label %26

26:                                               ; preds = %24, %8
  %27 = phi i1 [ false, %8 ], [ %25, %24 ]
  br i1 %27, label %28, label %31

28:                                               ; preds = %26
  %29 = load ptr, ptr %6, align 8, !tbaa !15
  %30 = getelementptr inbounds nuw i8, ptr %29, i32 1
  store ptr %30, ptr %6, align 8, !tbaa !15
  br label %8, !llvm.loop !121

31:                                               ; preds = %26
  %32 = load ptr, ptr %6, align 8, !tbaa !15
  %33 = load i8, ptr %32, align 1, !tbaa !19
  %34 = icmp ne i8 %33, 0
  br i1 %34, label %35, label %41

35:                                               ; preds = %31
  %36 = load ptr, ptr %6, align 8, !tbaa !15
  %37 = getelementptr inbounds i8, ptr %36, i64 2
  %38 = call ptr @skip_blank_lines(ptr noundef %37)
  store ptr %38, ptr %6, align 8, !tbaa !15
  %39 = load ptr, ptr %6, align 8, !tbaa !15
  %40 = call ptr @strchrnul(ptr noundef %39, i32 noundef 10) #13
  store ptr %40, ptr %5, align 8, !tbaa !15
  br label %43

41:                                               ; preds = %31
  %42 = load ptr, ptr %6, align 8, !tbaa !15
  store ptr %42, ptr %5, align 8, !tbaa !15
  br label %43

43:                                               ; preds = %41, %35
  %44 = load ptr, ptr %6, align 8, !tbaa !15
  %45 = load ptr, ptr %4, align 8, !tbaa !119
  store ptr %44, ptr %45, align 8, !tbaa !15
  %46 = load ptr, ptr %5, align 8, !tbaa !15
  %47 = load ptr, ptr %6, align 8, !tbaa !15
  %48 = ptrtoint ptr %46 to i64
  %49 = ptrtoint ptr %47 to i64
  %50 = sub i64 %48, %49
  %51 = trunc i64 %50 to i32
  call void @llvm.lifetime.end.p0(i64 8, ptr %6) #11
  call void @llvm.lifetime.end.p0(i64 8, ptr %5) #11
  ret i32 %51
}