; Function Attrs: nounwind uwtable
define dso_local i32 @find_commit_subject(ptr noundef %0, ptr noundef writeonly captures(none) %1) local_unnamed_addr #0 {
  br label %3

3:                                                ; preds = %.critedge2, %2
  %.0 = phi ptr [ %0, %2 ], [ %8, %.critedge2 ]
  %4 = load i8, ptr %.0, align 1, !tbaa !11
  switch i8 %4, label %.critedge2 [
    i8 0, label %.critedge.thread
    i8 10, label %5
  ]

5:                                                ; preds = %3
  %6 = getelementptr inbounds nuw i8, ptr %.0, i64 1
  %7 = load i8, ptr %6, align 1, !tbaa !11
  %.not18 = icmp eq i8 %7, 10
  br i1 %.not18, label %.critedge, label %.critedge2

.critedge2:                                       ; preds = %3, %5
  %8 = getelementptr inbounds nuw i8, ptr %.0, i64 1
  br label %3, !llvm.loop !104

.critedge:                                        ; preds = %5
  %9 = getelementptr inbounds nuw i8, ptr %.0, i64 2
  %10 = tail call ptr @skip_blank_lines(ptr noundef nonnull %9) #24
  %11 = tail call ptr @strchrnul(ptr noundef %10, i32 noundef 10) #26
  br label %.critedge.thread

.critedge.thread:                                 ; preds = %3, %.critedge
  %.015 = phi ptr [ %11, %.critedge ], [ %.0, %3 ]
  %.1 = phi ptr [ %10, %.critedge ], [ %.0, %3 ]
  store ptr %.1, ptr %1, align 8, !tbaa !54
  %12 = ptrtoint ptr %.015 to i64
  %13 = ptrtoint ptr %.1 to i64
  %14 = sub i64 %12, %13
  %15 = trunc i64 %14 to i32
  ret i32 %15
}